target datalayout = "e-m:e-p270:32:32-p271:32:32-p272:64:64-i64:64-i128:128-f80:128-n8:16:32:64-S128"
target triple = "x86_64-pc-linux-gnu"

%struct.wc_Sha256 = type { [8 x i32], [16 x i32], i32, i32, i32, ptr, [8 x i8] }

; Function Attrs: inlinehint nounwind uwtable
define internal i32 @rotlFixed(i32 noundef %0, i32 noundef %1) #2 {
  %3 = alloca i32, align 4
  %4 = alloca i32, align 4
  store i32 %0, ptr %3, align 4, !tbaa !9
  store i32 %1, ptr %4, align 4, !tbaa !9
  %5 = load i32, ptr %3, align 4, !tbaa !9
  %6 = load i32, ptr %4, align 4, !tbaa !9
  %7 = shl i32 %5, %6
  %8 = load i32, ptr %3, align 4, !tbaa !9
  %9 = load i32, ptr %4, align 4, !tbaa !9
  %10 = zext i32 %9 to i64
  %11 = sub i64 32, %10
  %12 = trunc i64 %11 to i32
  %13 = lshr i32 %8, %12
  %14 = or i32 %7, %13
  ret i32 %14
}

; Function Attrs: inlinehint nounwind uwtable
define internal i32 @rotrFixed(i32 noundef %0, i32 noundef %1) #2 {
  %3 = alloca i32, align 4
  %4 = alloca i32, align 4
  store i32 %0, ptr %3, align 4, !tbaa !9
  store i32 %1, ptr %4, align 4, !tbaa !9
  %5 = load i32, ptr %3, align 4, !tbaa !9
  %6 = load i32, ptr %4, align 4, !tbaa !9
  %7 = lshr i32 %5, %6
  %8 = load i32, ptr %3, align 4, !tbaa !9
  %9 = load i32, ptr %4, align 4, !tbaa !9
  %10 = zext i32 %9 to i64
  %11 = sub i64 32, %10
  %12 = trunc i64 %11 to i32
  %13 = shl i32 %8, %12
  %14 = or i32 %7, %13
  ret i32 %14
}

; Function Attrs: inlinehint nounwind uwtable
define internal i32 @ByteReverseWord32(i32 noundef %0) #2 {
  %2 = alloca i32, align 4
  store i32 %0, ptr %2, align 4, !tbaa !9
  %3 = load i32, ptr %2, align 4, !tbaa !9
  %4 = call i32 @rotrFixed(i32 noundef %3, i32 noundef 8)
  %5 = and i32 %4, -16711936
  %6 = load i32, ptr %2, align 4, !tbaa !9
  %7 = call i32 @rotlFixed(i32 noundef %6, i32 noundef 8)
  %8 = and i32 %7, 16711935
  %9 = or i32 %5, %8
  ret i32 %9
}

; Function Attrs: inlinehint nounwind uwtable
define internal void @ByteReverseWords(ptr noundef %0, ptr noundef %1, i32 noundef %2) #2 {
  %4 = alloca ptr, align 8
  %5 = alloca ptr, align 8
  %6 = alloca i32, align 4
  %7 = alloca i32, align 4
  %8 = alloca i32, align 4
  %9 = alloca ptr, align 8
  %10 = alloca ptr, align 8
  %11 = alloca i32, align 4
  store ptr %0, ptr %4, align 8, !tbaa !18
  store ptr %1, ptr %5, align 8, !tbaa !18
  store i32 %2, ptr %6, align 4, !tbaa !9
  call void @llvm.lifetime.start.p0(i64 4, ptr %7) #5
  %12 = load ptr, ptr %5, align 8, !tbaa !18
  %13 = ptrtoint ptr %12 to i64
  %14 = and i64 %13, 3
  %15 = icmp eq i64 %14, 0
  br i1 %15, label %16, label %43

16:                                               ; preds = %3
  %17 = load ptr, ptr %4, align 8, !tbaa !18
  %18 = ptrtoint ptr %17 to i64
  %19 = and i64 %18, 3
  %20 = icmp eq i64 %19, 0
  br i1 %20, label %21, label %43

21:                                               ; preds = %16
  call void @llvm.lifetime.start.p0(i64 4, ptr %8) #5
  %22 = load i32, ptr %6, align 4, !tbaa !9
  %23 = udiv i32 %22, 4
  store i32 %23, ptr %8, align 4, !tbaa !9
  store i32 0, ptr %7, align 4, !tbaa !9
  br label %24

24:                                               ; preds = %39, %21
  %25 = load i32, ptr %7, align 4, !tbaa !9
  %26 = load i32, ptr %8, align 4, !tbaa !9
  %27 = icmp ult i32 %25, %26
  br i1 %27, label %28, label %42

28:                                               ; preds = %24
  %29 = load ptr, ptr %5, align 8, !tbaa !18
  %30 = load i32, ptr %7, align 4, !tbaa !9
  %31 = zext i32 %30 to i64
  %32 = getelementptr inbounds nuw i32, ptr %29, i64 %31
  %33 = load i32, ptr %32, align 4, !tbaa !9
  %34 = call i32 @ByteReverseWord32(i32 noundef %33)
  %35 = load ptr, ptr %4, align 8, !tbaa !18
  %36 = load i32, ptr %7, align 4, !tbaa !9
  %37 = zext i32 %36 to i64
  %38 = getelementptr inbounds nuw i32, ptr %35, i64 %37
  store i32 %34, ptr %38, align 4, !tbaa !9
  br label %39

39:                                               ; preds = %28
  %40 = load i32, ptr %7, align 4, !tbaa !9
  %41 = add i32 %40, 1
  store i32 %41, ptr %7, align 4, !tbaa !9
  br label %24, !llvm.loop !22

42:                                               ; preds = %24
  call void @llvm.lifetime.end.p0(i64 4, ptr %8) #5
  br label %67

43:                                               ; preds = %16, %3
  call void @llvm.lifetime.start.p0(i64 8, ptr %9) #5
  %44 = load ptr, ptr %5, align 8, !tbaa !18
  store ptr %44, ptr %9, align 8, !tbaa !16
  call void @llvm.lifetime.start.p0(i64 8, ptr %10) #5
  %45 = load ptr, ptr %4, align 8, !tbaa !18
  store ptr %45, ptr %10, align 8, !tbaa !16
  call void @llvm.lifetime.start.p0(i64 4, ptr %11) #5
  %46 = load i32, ptr %6, align 4, !tbaa !9
  %47 = and i32 %46, -4
  store i32 %47, ptr %6, align 4, !tbaa !9
  store i32 0, ptr %7, align 4, !tbaa !9
  br label %48

48:                                               ; preds = %63, %43
  %49 = load i32, ptr %7, align 4, !tbaa !9
  %50 = load i32, ptr %6, align 4, !tbaa !9
  %51 = icmp ult i32 %49, %50
  br i1 %51, label %52, label %66

52:                                               ; preds = %48
  %53 = load ptr, ptr %9, align 8, !tbaa !16
  %54 = load i32, ptr %7, align 4, !tbaa !9
  %55 = zext i32 %54 to i64
  %56 = getelementptr inbounds nuw i8, ptr %53, i64 %55
  call void @llvm.memcpy.p0.p0.i64(ptr align 4 %11, ptr align 1 %56, i64 4, i1 false)
  %57 = load i32, ptr %11, align 4, !tbaa !9
  %58 = call i32 @ByteReverseWord32(i32 noundef %57)
  store i32 %58, ptr %11, align 4, !tbaa !9
  %59 = load ptr, ptr %10, align 8, !tbaa !16
  %60 = load i32, ptr %7, align 4, !tbaa !9
  %61 = zext i32 %60 to i64
  %62 = getelementptr inbounds nuw i8, ptr %59, i64 %61
  call void @llvm.memcpy.p0.p0.i64(ptr align 1 %62, ptr align 4 %11, i64 4, i1 false)
  br label %63

63:                                               ; preds = %52
  %64 = load i32, ptr %7, align 4, !tbaa !9
  %65 = add i32 %64, 4
  store i32 %65, ptr %7, align 4, !tbaa !9
  br label %48, !llvm.loop !23

66:                                               ; preds = %48
  call void @llvm.lifetime.end.p0(i64 4, ptr %11) #5
  call void @llvm.lifetime.end.p0(i64 8, ptr %10) #5
  call void @llvm.lifetime.end.p0(i64 8, ptr %9) #5
  br label %67

67:                                               ; preds = %66, %42
  call void @llvm.lifetime.end.p0(i64 4, ptr %7) #5
  ret void
}

; Function Attrs: inlinehint nounwind uwtable
define internal i32 @Sha256Final(ptr noundef %0) #2 {
  %2 = alloca i32, align 4
  %3 = alloca ptr, align 8
  %4 = alloca i32, align 4
  %5 = alloca ptr, align 8
  %6 = alloca i32, align 4
  store ptr %0, ptr %3, align 8, !tbaa !3
  call void @llvm.lifetime.start.p0(i64 4, ptr %4) #5
  call void @llvm.lifetime.start.p0(i64 8, ptr %5) #5
  %7 = load ptr, ptr %3, align 8, !tbaa !3
  %8 = getelementptr inbounds nuw %struct.wc_Sha256, ptr %7, i32 0, i32 2
  %9 = load i32, ptr %8, align 16, !tbaa !13
  %10 = icmp ugt i32 %9, 63
  br i1 %10, label %11, label %12

11:                                               ; preds = %1
  store i32 -192, ptr %2, align 4
  store i32 1, ptr %6, align 4
  br label %108

12:                                               ; preds = %1
  %13 = load ptr, ptr %3, align 8, !tbaa !3
  %14 = getelementptr inbounds nuw %struct.wc_Sha256, ptr %13, i32 0, i32 1
  %15 = getelementptr inbounds [16 x i32], ptr %14, i64 0, i64 0
  store ptr %15, ptr %5, align 8, !tbaa !16
  %16 = load ptr, ptr %5, align 8, !tbaa !16
  %17 = load ptr, ptr %3, align 8, !tbaa !3
  %18 = getelementptr inbounds nuw %struct.wc_Sha256, ptr %17, i32 0, i32 2
  %19 = load i32, ptr %18, align 16, !tbaa !13
  %20 = add i32 %19, 1
  store i32 %20, ptr %18, align 16, !tbaa !13
  %21 = zext i32 %19 to i64
  %22 = getelementptr inbounds nuw i8, ptr %16, i64 %21
  store i8 -128, ptr %22, align 1, !tbaa !24
  %23 = load ptr, ptr %3, align 8, !tbaa !3
  %24 = getelementptr inbounds nuw %struct.wc_Sha256, ptr %23, i32 0, i32 2
  %25 = load i32, ptr %24, align 16, !tbaa !13
  %26 = icmp ugt i32 %25, 56
  br i1 %26, label %27, label %61

27:                                               ; preds = %12
  %28 = load ptr, ptr %3, align 8, !tbaa !3
  %29 = getelementptr inbounds nuw %struct.wc_Sha256, ptr %28, i32 0, i32 2
  %30 = load i32, ptr %29, align 16, !tbaa !13
  %31 = icmp ult i32 %30, 64
  br i1 %31, label %32, label %44

32:                                               ; preds = %27
  %33 = load ptr, ptr %5, align 8, !tbaa !16
  %34 = load ptr, ptr %3, align 8, !tbaa !3
  %35 = getelementptr inbounds nuw %struct.wc_Sha256, ptr %34, i32 0, i32 2
  %36 = load i32, ptr %35, align 16, !tbaa !13
  %37 = zext i32 %36 to i64
  %38 = getelementptr inbounds nuw i8, ptr %33, i64 %37
  %39 = load ptr, ptr %3, align 8, !tbaa !3
  %40 = getelementptr inbounds nuw %struct.wc_Sha256, ptr %39, i32 0, i32 2
  %41 = load i32, ptr %40, align 16, !tbaa !13
  %42 = sub i32 64, %41
  %43 = zext i32 %42 to i64
  call void @llvm.memset.p0.i64(ptr align 1 %38, i8 0, i64 %43, i1 false)
  br label %44

44:                                               ; preds = %32, %27
  %45 = load ptr, ptr %3, align 8, !tbaa !3
  %46 = getelementptr inbounds nuw %struct.wc_Sha256, ptr %45, i32 0, i32 1
  %47 = getelementptr inbounds [16 x i32], ptr %46, i64 0, i64 0
  %48 = load ptr, ptr %3, align 8, !tbaa !3
  %49 = getelementptr inbounds nuw %struct.wc_Sha256, ptr %48, i32 0, i32 1
  %50 = getelementptr inbounds [16 x i32], ptr %49, i64 0, i64 0
  call void @ByteReverseWords(ptr noundef %47, ptr noundef %50, i32 noundef 64)
  %51 = load ptr, ptr %3, align 8, !tbaa !3
  %52 = load ptr, ptr %5, align 8, !tbaa !16
  %53 = call i32 @Transform_Sha256(ptr noundef %51, ptr noundef %52)
  store i32 %53, ptr %4, align 4, !tbaa !9
  %54 = load i32, ptr %4, align 4, !tbaa !9
  %55 = icmp ne i32 %54, 0
  br i1 %55, label %56, label %58

56:                                               ; preds = %44
  %57 = load i32, ptr %4, align 4, !tbaa !9
  store i32 %57, ptr %2, align 4
  store i32 1, ptr %6, align 4
  br label %108

58:                                               ; preds = %44
  %59 = load ptr, ptr %3, align 8, !tbaa !3
  %60 = getelementptr inbounds nuw %struct.wc_Sha256, ptr %59, i32 0, i32 2
  store i32 0, ptr %60, align 16, !tbaa !13
  br label %61

61:                                               ; preds = %58, %12
  %62 = load ptr, ptr %5, align 8, !tbaa !16
  %63 = load ptr, ptr %3, align 8, !tbaa !3
  %64 = getelementptr inbounds nuw %struct.wc_Sha256, ptr %63, i32 0, i32 2
  %65 = load i32, ptr %64, align 16, !tbaa !13
  %66 = zext i32 %65 to i64
  %67 = getelementptr inbounds nuw i8, ptr %62, i64 %66
  %68 = load ptr, ptr %3, align 8, !tbaa !3
  %69 = getelementptr inbounds nuw %struct.wc_Sha256, ptr %68, i32 0, i32 2
  %70 = load i32, ptr %69, align 16, !tbaa !13
  %71 = sub i32 56, %70
  %72 = zext i32 %71 to i64
  call void @llvm.memset.p0.i64(ptr align 1 %67, i8 0, i64 %72, i1 false)
  %73 = load ptr, ptr %3, align 8, !tbaa !3
  %74 = getelementptr inbounds nuw %struct.wc_Sha256, ptr %73, i32 0, i32 3
  %75 = load i32, ptr %74, align 4, !tbaa !14
  %76 = lshr i32 %75, 29
  %77 = load ptr, ptr %3, align 8, !tbaa !3
  %78 = getelementptr inbounds nuw %struct.wc_Sha256, ptr %77, i32 0, i32 4
  %79 = load i32, ptr %78, align 8, !tbaa !15
  %80 = shl i32 %79, 3
  %81 = add i32 %76, %80
  %82 = load ptr, ptr %3, align 8, !tbaa !3
  %83 = getelementptr inbounds nuw %struct.wc_Sha256, ptr %82, i32 0, i32 4
  store i32 %81, ptr %83, align 8, !tbaa !15
  %84 = load ptr, ptr %3, align 8, !tbaa !3
  %85 = getelementptr inbounds nuw %struct.wc_Sha256, ptr %84, i32 0, i32 3
  %86 = load i32, ptr %85, align 4, !tbaa !14
  %87 = shl i32 %86, 3
  %88 = load ptr, ptr %3, align 8, !tbaa !3
  %89 = getelementptr inbounds nuw %struct.wc_Sha256, ptr %88, i32 0, i32 3
  store i32 %87, ptr %89, align 4, !tbaa !14
  %90 = load ptr, ptr %3, align 8, !tbaa !3
  %91 = getelementptr inbounds nuw %struct.wc_Sha256, ptr %90, i32 0, i32 1
  %92 = getelementptr inbounds [16 x i32], ptr %91, i64 0, i64 0
  %93 = load ptr, ptr %3, align 8, !tbaa !3
  %94 = getelementptr inbounds nuw %struct.wc_Sha256, ptr %93, i32 0, i32 1
  %95 = getelementptr inbounds [16 x i32], ptr %94, i64 0, i64 0
  call void @ByteReverseWords(ptr noundef %92, ptr noundef %95, i32 noundef 56)
  %96 = load ptr, ptr %5, align 8, !tbaa !16
  %97 = getelementptr inbounds i8, ptr %96, i64 56
  %98 = load ptr, ptr %3, align 8, !tbaa !3
  %99 = getelementptr inbounds nuw %struct.wc_Sha256, ptr %98, i32 0, i32 4
  call void @llvm.memcpy.p0.p0.i64(ptr align 1 %97, ptr align 8 %99, i64 4, i1 false)
  %100 = load ptr, ptr %5, align 8, !tbaa !16
  %101 = getelementptr inbounds nuw i8, ptr %100, i64 60
  %102 = load ptr, ptr %3, align 8, !tbaa !3
  %103 = getelementptr inbounds nuw %struct.wc_Sha256, ptr %102, i32 0, i32 3
  call void @llvm.memcpy.p0.p0.i64(ptr align 1 %101, ptr align 4 %103, i64 4, i1 false)
  %104 = load ptr, ptr %3, align 8, !tbaa !3
  %105 = load ptr, ptr %5, align 8, !tbaa !16
  %106 = call i32 @Transform_Sha256(ptr noundef %104, ptr noundef %105)
  store i32 %106, ptr %4, align 4, !tbaa !9
  %107 = load i32, ptr %4, align 4, !tbaa !9
  store i32 %107, ptr %2, align 4
  store i32 1, ptr %6, align 4
  br label %108

108:                                              ; preds = %61, %56, %11
  call void @llvm.lifetime.end.p0(i64 8, ptr %5) #5
  call void @llvm.lifetime.end.p0(i64 4, ptr %4) #5
  %109 = load i32, ptr %2, align 4
  ret i32 %109
}