; Function Attrs: inlinehint nofree norecurse nosync nounwind memory(argmem: readwrite) uwtable
define internal fastcc range(i32 -192, 1) i32 @Sha256Final(ptr noundef nonnull %0) unnamed_addr #3 {
  %2 = getelementptr inbounds nuw i8, ptr %0, i64 96
  %3 = load i32, ptr %2, align 16, !tbaa !7
  %4 = icmp ugt i32 %3, 63
  br i1 %4, label %50, label %5

5:                                                ; preds = %1
  %6 = getelementptr inbounds nuw i8, ptr %0, i64 32
  %7 = add nuw nsw i32 %3, 1
  store i32 %7, ptr %2, align 16, !tbaa !7
  %8 = zext nneg i32 %3 to i64
  %9 = getelementptr inbounds nuw i8, ptr %6, i64 %8
  store i8 -128, ptr %9, align 1, !tbaa !16
  %10 = load i32, ptr %2, align 16, !tbaa !7
  %11 = icmp ugt i32 %10, 56
  br i1 %11, label %12, label %._crit_edge

._crit_edge:                                      ; preds = %5
  %.pre = ptrtoint ptr %6 to i64
  %.pre52 = and i64 %.pre, 3
  br label %28

12:                                               ; preds = %5
  %13 = icmp ult i32 %10, 64
  br i1 %13, label %14, label %19

14:                                               ; preds = %12
  %15 = zext nneg i32 %10 to i64
  %16 = getelementptr inbounds nuw i8, ptr %6, i64 %15
  %17 = sub nuw nsw i32 64, %10
  %18 = zext nneg i32 %17 to i64
  tail call void @llvm.memset.p0.i64(ptr nonnull align 1 %16, i8 0, i64 %18, i1 false)
  br label %19

19:                                               ; preds = %14, %12
  %20 = ptrtoint ptr %6 to i64
  %21 = and i64 %20, 3
  %or.cond.i = icmp eq i64 %21, 0
  br i1 %or.cond.i, label %.lr.ph26.i, label %.lr.ph.i

.lr.ph26.i:                                       ; preds = %19, %.lr.ph26.i
  %indvars.iv30.i = phi i64 [ %indvars.iv.next31.i, %.lr.ph26.i ], [ 0, %19 ]
  %22 = getelementptr inbounds nuw i32, ptr %6, i64 %indvars.iv30.i
  %23 = load i32, ptr %22, align 4, !tbaa !3
  %24 = tail call noundef i32 @llvm.bswap.i32(i32 %23)
  store i32 %24, ptr %22, align 4, !tbaa !3
  %indvars.iv.next31.i = add nuw nsw i64 %indvars.iv30.i, 1
  %exitcond.not.i = icmp eq i64 %indvars.iv.next31.i, 16
  br i1 %exitcond.not.i, label %ByteReverseWords.exit, label %.lr.ph26.i, !llvm.loop !13

.lr.ph.i:                                         ; preds = %19, %.lr.ph.i
  %indvars.iv.i = phi i64 [ %indvars.iv.next.i, %.lr.ph.i ], [ 0, %19 ]
  %25 = getelementptr inbounds nuw i8, ptr %6, i64 %indvars.iv.i
  %.0.copyload.i = load i32, ptr %25, align 1
  %26 = tail call noundef i32 @llvm.bswap.i32(i32 %.0.copyload.i)
  store i32 %26, ptr %25, align 1
  %indvars.iv.next.i = add nuw nsw i64 %indvars.iv.i, 4
  %27 = icmp samesign ult i64 %indvars.iv.i, 60
  br i1 %27, label %.lr.ph.i, label %ByteReverseWords.exit, !llvm.loop !15

ByteReverseWords.exit:                            ; preds = %.lr.ph.i, %.lr.ph26.i
  tail call fastcc void @Transform_Sha256(ptr noundef %0, ptr noundef %6)
  store i32 0, ptr %2, align 16, !tbaa !7
  br label %28

28:                                               ; preds = %._crit_edge, %ByteReverseWords.exit
  %.pre-phi53 = phi i64 [ %.pre52, %._crit_edge ], [ %21, %ByteReverseWords.exit ]
  %29 = phi i32 [ %10, %._crit_edge ], [ 0, %ByteReverseWords.exit ]
  %30 = zext nneg i32 %29 to i64
  %31 = getelementptr inbounds nuw i8, ptr %6, i64 %30
  %32 = sub nuw nsw i32 56, %29
  %33 = zext nneg i32 %32 to i64
  tail call void @llvm.memset.p0.i64(ptr nonnull align 1 %31, i8 0, i64 %33, i1 false)
  %34 = getelementptr inbounds nuw i8, ptr %0, i64 100
  %35 = load i32, ptr %34, align 4, !tbaa !10
  %36 = getelementptr inbounds nuw i8, ptr %0, i64 104
  %37 = load i32, ptr %36, align 8, !tbaa !11
  %38 = tail call i32 @llvm.fshl.i32(i32 %37, i32 %35, i32 3)
  store i32 %38, ptr %36, align 8, !tbaa !11
  %39 = shl i32 %35, 3
  store i32 %39, ptr %34, align 4, !tbaa !10
  %or.cond.i36 = icmp eq i64 %.pre-phi53, 0
  br i1 %or.cond.i36, label %.lr.ph26.i43, label %.lr.ph.i38

.lr.ph26.i43:                                     ; preds = %28, %.lr.ph26.i43
  %indvars.iv30.i44 = phi i64 [ %indvars.iv.next31.i45, %.lr.ph26.i43 ], [ 0, %28 ]
  %40 = getelementptr inbounds nuw i32, ptr %6, i64 %indvars.iv30.i44
  %41 = load i32, ptr %40, align 4, !tbaa !3
  %42 = tail call noundef i32 @llvm.bswap.i32(i32 %41)
  store i32 %42, ptr %40, align 4, !tbaa !3
  %indvars.iv.next31.i45 = add nuw nsw i64 %indvars.iv30.i44, 1
  %exitcond.not.i46 = icmp eq i64 %indvars.iv.next31.i45, 14
  br i1 %exitcond.not.i46, label %ByteReverseWords.exit47, label %.lr.ph26.i43, !llvm.loop !13

.lr.ph.i38:                                       ; preds = %28, %.lr.ph.i38
  %indvars.iv.i39 = phi i64 [ %indvars.iv.next.i41, %.lr.ph.i38 ], [ 0, %28 ]
  %43 = getelementptr inbounds nuw i8, ptr %6, i64 %indvars.iv.i39
  %.0.copyload.i40 = load i32, ptr %43, align 1
  %44 = tail call noundef i32 @llvm.bswap.i32(i32 %.0.copyload.i40)
  store i32 %44, ptr %43, align 1
  %indvars.iv.next.i41 = add nuw nsw i64 %indvars.iv.i39, 4
  %45 = icmp samesign ult i64 %indvars.iv.i39, 52
  br i1 %45, label %.lr.ph.i38, label %ByteReverseWords.exit47, !llvm.loop !15

ByteReverseWords.exit47:                          ; preds = %.lr.ph.i38, %.lr.ph26.i43
  %46 = getelementptr inbounds nuw i8, ptr %0, i64 88
  %47 = load i32, ptr %36, align 8
  store i32 %47, ptr %46, align 1
  %48 = getelementptr inbounds nuw i8, ptr %0, i64 92
  %49 = load i32, ptr %34, align 4
  store i32 %49, ptr %48, align 1
  tail call fastcc void @Transform_Sha256(ptr noundef %0, ptr noundef %6)
  br label %50

50:                                               ; preds = %1, %ByteReverseWords.exit47
  %.0 = phi i32 [ 0, %ByteReverseWords.exit47 ], [ -192, %1 ]
  ret i32 %.0
}